(dp1
S'failed'
p2
(lp3
S'62'
p4
aS'78'
p5
aS'79'
p6
aS'80'
p7
aS'81'
p8
aS'82'
p9
aS'83'
p10
aS'84'
p11
aS'85'
p12
aS'86'
p13
aS'87'
p14
aS'88'
p15
aS'89'
p16
aS'90'
p17
aS'91'
p18
aS'92'
p19
aS'93'
p20
aS'94'
p21
aS'95'
p22
aS'96'
p23
aS'97'
p24
aS'98'
p25
aS'99'
p26
aS'100'
p27
aS'101'
p28
aS'102'
p29
aS'103'
p30
aS'104'
p31
aS'105'
p32
aS'106'
p33
aS'107'
p34
aS'108'
p35
aS'109'
p36
aS'110'
p37
aS'111'
p38
aS'112'
p39
aS'113'
p40
aS'114'
p41
aS'115'
p42
aS'116'
p43
aS'117'
p44
aS'119'
p45
aS'120'
p46
aS'121'
p47
aS'122'
p48
aS'123'
p49
aS'124'
p50
aS'125'
p51
aS'126'
p52
aS'127'
p53
aS'128'
p54
aS'129'
p55
aS'130'
p56
aS'131'
p57
aS'132'
p58
aS'133'
p59
aS'134'
p60
aS'135'
p61
aS'136'
p62
aS'137'
p63
aS'138'
p64
aS'139'
p65
aS'140'
p66
aS'156'
p67
aS'157'
p68
aS'158'
p69
aS'250'
p70
aS'251'
p71
aS'252'
p72
asS'source_names'
p73
(lp74
S'/home/icholy/Code/src/github.com/icholy/ycmd/ycmd'
p75
asS'ids'
p76
(dp77
I1
(S'/home/icholy/Code/src/github.com/icholy/ycmd/ycmd/completers/all/tests/identifier_completer_test.py'
S'ycmd.completers.all.tests.identifier_completer_test'
p78
S'GetCursorIdentifier_StartOfLine_test'
tp79
sI2
(S'/home/icholy/Code/src/github.com/icholy/ycmd/ycmd/completers/all/tests/identifier_completer_test.py'
g78
S'GetCursorIdentifier_EndOfLine_test'
tp80
sI3
(S'/home/icholy/Code/src/github.com/icholy/ycmd/ycmd/completers/all/tests/identifier_completer_test.py'
g78
S'GetCursorIdentifier_PastEndOfLine_test'
tp81
sI4
(S'/home/icholy/Code/src/github.com/icholy/ycmd/ycmd/completers/all/tests/identifier_completer_test.py'
g78
S'GetCursorIdentifier_NegativeColumn_test'
tp82
sI5
(S'/home/icholy/Code/src/github.com/icholy/ycmd/ycmd/completers/all/tests/identifier_completer_test.py'
g78
S'GetCursorIdentifier_StartOfLine_StopsAtNonIdentifierChar_test'
tp83
sI6
(S'/home/icholy/Code/src/github.com/icholy/ycmd/ycmd/completers/all/tests/identifier_completer_test.py'
g78
S'GetCursorIdentifier_AtNonIdentifier_test'
tp84
sI7
(S'/home/icholy/Code/src/github.com/icholy/ycmd/ycmd/completers/all/tests/identifier_completer_test.py'
g78
S'GetCursorIdentifier_WalksForwardForIdentifier_test'
tp85
sI8
(S'/home/icholy/Code/src/github.com/icholy/ycmd/ycmd/completers/all/tests/identifier_completer_test.py'
g78
S'GetCursorIdentifier_FindsNothingForward_test'
tp86
sI9
(S'/home/icholy/Code/src/github.com/icholy/ycmd/ycmd/completers/all/tests/identifier_completer_test.py'
g78
S'GetCursorIdentifier_SingleCharIdentifier_test'
tp87
sI10
(S'/home/icholy/Code/src/github.com/icholy/ycmd/ycmd/completers/all/tests/identifier_completer_test.py'
g78
S'GetCursorIdentifier_StartsInMiddleOfIdentifier_test'
tp88
sI11
(S'/home/icholy/Code/src/github.com/icholy/ycmd/ycmd/completers/all/tests/identifier_completer_test.py'
g78
S'GetCursorIdentifier_LineEmpty_test'
tp89
sI12
(S'/home/icholy/Code/src/github.com/icholy/ycmd/ycmd/completers/all/tests/identifier_completer_test.py'
g78
S'PreviousIdentifier_Simple_test'
tp90
sI13
(S'/home/icholy/Code/src/github.com/icholy/ycmd/ycmd/completers/all/tests/identifier_completer_test.py'
g78
S'PreviousIdentifier_ColumnInMiddleStillWholeIdent_test'
tp91
sI14
(S'/home/icholy/Code/src/github.com/icholy/ycmd/ycmd/completers/all/tests/identifier_completer_test.py'
g78
S'PreviousIdentifier_IgnoreForwardIdents_test'
tp92
sI15
(S'/home/icholy/Code/src/github.com/icholy/ycmd/ycmd/completers/all/tests/identifier_completer_test.py'
g78
S'PreviousIdentifier_IgnoreTooSmallIdent_test'
tp93
sI16
(S'/home/icholy/Code/src/github.com/icholy/ycmd/ycmd/completers/all/tests/identifier_completer_test.py'
g78
S'PreviousIdentifier_IgnoreTooSmallIdent_DontContinueLooking_test'
tp94
sI17
(S'/home/icholy/Code/src/github.com/icholy/ycmd/ycmd/completers/all/tests/identifier_completer_test.py'
g78
S'PreviousIdentifier_WhitespaceAfterIdent_test'
tp95
sI18
(S'/home/icholy/Code/src/github.com/icholy/ycmd/ycmd/completers/all/tests/identifier_completer_test.py'
g78
S'PreviousIdentifier_JunkAfterIdent_test'
tp96
sI19
(S'/home/icholy/Code/src/github.com/icholy/ycmd/ycmd/completers/all/tests/identifier_completer_test.py'
g78
S'PreviousIdentifier_IdentInMiddleOfJunk_test'
tp97
sI20
(S'/home/icholy/Code/src/github.com/icholy/ycmd/ycmd/completers/all/tests/identifier_completer_test.py'
g78
S'PreviousIdentifier_IdentOnPreviousLine_test'
tp98
sI21
(S'/home/icholy/Code/src/github.com/icholy/ycmd/ycmd/completers/all/tests/identifier_completer_test.py'
g78
S'PreviousIdentifier_IdentOnPreviousLine_JunkAfterIdent_test'
tp99
sI22
(S'/home/icholy/Code/src/github.com/icholy/ycmd/ycmd/completers/cpp/tests/flags_test.py'
S'ycmd.completers.cpp.tests.flags_test'
p100
S'SanitizeFlags_Passthrough_test'
tp101
sI23
(S'/home/icholy/Code/src/github.com/icholy/ycmd/ycmd/completers/cpp/tests/flags_test.py'
g100
S'SanitizeFlags_ArchRemoved_test'
tp102
sI24
(S'/home/icholy/Code/src/github.com/icholy/ycmd/ycmd/completers/cpp/tests/flags_test.py'
g100
S'RemoveUnusedFlags_Passthrough_test'
tp103
sI25
(S'/home/icholy/Code/src/github.com/icholy/ycmd/ycmd/completers/cpp/tests/flags_test.py'
g100
S'RemoveUnusedFlags_RemoveDashC_test'
tp104
sI26
(S'/home/icholy/Code/src/github.com/icholy/ycmd/ycmd/completers/cpp/tests/flags_test.py'
g100
S'RemoveUnusedFlags_RemoveColor_test'
tp105
sI27
(S'/home/icholy/Code/src/github.com/icholy/ycmd/ycmd/completers/cpp/tests/flags_test.py'
g100
S'RemoveUnusedFlags_RemoveDashO_test'
tp106
sI28
(S'/home/icholy/Code/src/github.com/icholy/ycmd/ycmd/completers/cpp/tests/flags_test.py'
g100
S'RemoveUnusedFlags_RemoveMP_test'
tp107
sI29
(S'/home/icholy/Code/src/github.com/icholy/ycmd/ycmd/completers/cpp/tests/flags_test.py'
g100
S'RemoveUnusedFlags_RemoveFilename_test'
tp108
sI30
(S'/home/icholy/Code/src/github.com/icholy/ycmd/ycmd/completers/cpp/tests/flags_test.py'
g100
S'RemoveUnusedFlags_RemoveFlagWithoutPrecedingDashFlag_test'
tp109
sI31
(S'/home/icholy/Code/src/github.com/icholy/ycmd/ycmd/completers/cpp/tests/flags_test.py'
g100
S'RemoveUnusedFlags_RemoveFilenameWithoutPrecedingInclude_test'
tp110
sI32
(S'/home/icholy/Code/src/github.com/icholy/ycmd/ycmd/completers/cpp/tests/flags_test.py'
g100
S'RemoveXclangFlags_test'
tp111
sI33
(S'/home/icholy/Code/src/github.com/icholy/ycmd/ycmd/completers/cpp/tests/flags_test.py'
g100
S'CompilerToLanguageFlag_Passthrough_test'
tp112
sI34
(S'/home/icholy/Code/src/github.com/icholy/ycmd/ycmd/completers/cpp/tests/flags_test.py'
g100
S'CompilerToLanguageFlag_ReplaceCCompiler_test'
tp113
sI35
(S'/home/icholy/Code/src/github.com/icholy/ycmd/ycmd/completers/cpp/tests/flags_test.py'
g100
S'CompilerToLanguageFlag_ReplaceCppCompiler_test'
tp114
sI36
(S'/home/icholy/Code/src/github.com/icholy/ycmd/ycmd/completers/general/tests/filename_completer_test.py'
S'ycmd.completers.general.tests.filename_completer_test'
p115
S'FilenameCompleter_test.EnvVar_AtStart_Dir_Partial_test'
tp116
sI37
(S'/home/icholy/Code/src/github.com/icholy/ycmd/ycmd/completers/general/tests/filename_completer_test.py'
g115
S'FilenameCompleter_test.EnvVar_AtStart_Dir_test'
tp117
sI38
(S'/home/icholy/Code/src/github.com/icholy/ycmd/ycmd/completers/general/tests/filename_completer_test.py'
g115
S'FilenameCompleter_test.EnvVar_AtStart_File_Partial_test'
tp118
sI39
(S'/home/icholy/Code/src/github.com/icholy/ycmd/ycmd/completers/general/tests/filename_completer_test.py'
g115
S'FilenameCompleter_test.EnvVar_AtStart_File_test'
tp119
sI40
(S'/home/icholy/Code/src/github.com/icholy/ycmd/ycmd/completers/general/tests/filename_completer_test.py'
g115
S'FilenameCompleter_test.EnvVar_Empty_Matches_test'
tp120
sI41
(S'/home/icholy/Code/src/github.com/icholy/ycmd/ycmd/completers/general/tests/filename_completer_test.py'
g115
S'FilenameCompleter_test.EnvVar_InMiddle_Dir_Partial_test'
tp121
sI42
(S'/home/icholy/Code/src/github.com/icholy/ycmd/ycmd/completers/general/tests/filename_completer_test.py'
g115
S'FilenameCompleter_test.EnvVar_InMiddle_Dir_test'
tp122
sI43
(S'/home/icholy/Code/src/github.com/icholy/ycmd/ycmd/completers/general/tests/filename_completer_test.py'
g115
S'FilenameCompleter_test.EnvVar_InMiddle_File_Partial_test'
tp123
sI44
(S'/home/icholy/Code/src/github.com/icholy/ycmd/ycmd/completers/general/tests/filename_completer_test.py'
g115
S'FilenameCompleter_test.EnvVar_InMiddle_File_test'
tp124
sI45
(S'/home/icholy/Code/src/github.com/icholy/ycmd/ycmd/completers/general/tests/filename_completer_test.py'
g115
S'FilenameCompleter_test.EnvVar_Undefined_Garbage_2_test'
tp125
sI46
(S'/home/icholy/Code/src/github.com/icholy/ycmd/ycmd/completers/general/tests/filename_completer_test.py'
g115
S'FilenameCompleter_test.EnvVar_Undefined_Garbage_3_test'
tp126
sI47
(S'/home/icholy/Code/src/github.com/icholy/ycmd/ycmd/completers/general/tests/filename_completer_test.py'
g115
S'FilenameCompleter_test.EnvVar_Undefined_Garbage_test'
tp127
sI48
(S'/home/icholy/Code/src/github.com/icholy/ycmd/ycmd/completers/general/tests/filename_completer_test.py'
g115
S'FilenameCompleter_test.EnvVar_Undefined_test'
tp128
sI49
(S'/home/icholy/Code/src/github.com/icholy/ycmd/ycmd/completers/general/tests/filename_completer_test.py'
g115
S'FilenameCompleter_test.IncludeCompletion_test'
tp129
sI50
(S'/home/icholy/Code/src/github.com/icholy/ycmd/ycmd/completers/general/tests/filename_completer_test.py'
g115
S'FilenameCompleter_test.QuotedIncludeCompletion_test'
tp130
sI51
(S'/home/icholy/Code/src/github.com/icholy/ycmd/ycmd/completers/general/tests/filename_completer_test.py'
g115
S'FilenameCompleter_test.SystemPathCompletion_test'
tp131
sI52
(S'/home/icholy/Code/src/github.com/icholy/ycmd/ycmd/completers/general/tests/filename_completer_test.py'
g115
S'WorkingDir_Use_File_Path_test'
tp132
sI53
(S'/home/icholy/Code/src/github.com/icholy/ycmd/ycmd/completers/general/tests/filename_completer_test.py'
g115
S'WorkingDir_Use_ycmd_WD_test'
tp133
sI54
(S'/home/icholy/Code/src/github.com/icholy/ycmd/ycmd/completers/general/tests/filename_completer_test.py'
g115
S'WorkingDir_Use_Client_WD_test'
tp134
sI55
(S'/home/icholy/Code/src/github.com/icholy/ycmd/ycmd/completers/go/tests/gocode_completer_test.py'
S'gocode_completer_test'
p135
S'GoCodeCompleter_test.ComputeCandidatesGoCodePanic_test'
tp136
sI56
(S'/home/icholy/Code/src/github.com/icholy/ycmd/ycmd/completers/go/tests/gocode_completer_test.py'
g135
S'GoCodeCompleter_test.ComputeCandidatesInnerAfterUnicode_test'
tp137
sI57
(S'/home/icholy/Code/src/github.com/icholy/ycmd/ycmd/completers/go/tests/gocode_completer_test.py'
g135
S'GoCodeCompleter_test.ComputeCandidatesInnerGoCodeFailure_test'
tp138
sI58
(S'/home/icholy/Code/src/github.com/icholy/ycmd/ycmd/completers/go/tests/gocode_completer_test.py'
g135
S'GoCodeCompleter_test.ComputeCandidatesInnerNoResultsFailure_test'
tp139
sI59
(S'/home/icholy/Code/src/github.com/icholy/ycmd/ycmd/completers/go/tests/gocode_completer_test.py'
g135
S'GoCodeCompleter_test.ComputeCandidatesInnerOffsetBeforeUnicode_test'
tp140
sI60
(S'/home/icholy/Code/src/github.com/icholy/ycmd/ycmd/completers/go/tests/gocode_completer_test.py'
g135
S'GoCodeCompleter_test.ComputeCandidatesInnerParseFailure_test'
tp141
sI61
(S'/home/icholy/Code/src/github.com/icholy/ycmd/ycmd/completers/go/tests/gocode_completer_test.py'
g135
S'GoCodeCompleter_test.ComputeCandidatesInner_test'
tp142
sI62
(S'/home/icholy/Code/src/github.com/icholy/ycmd/ycmd/completers/go/tests/gocode_completer_test.py'
g135
S'GoCodeCompleter_test.FindGoCodeBinary_test'
tp143
sI63
(S'/home/icholy/Code/src/github.com/icholy/ycmd/ycmd/completers/completer_utils_test.py'
S'ycmd.completers.completer_utils_test'
p144
S'FiletypeTriggerDictFromSpec_Works_test'
tp145
sI64
(S'/home/icholy/Code/src/github.com/icholy/ycmd/ycmd/completers/completer_utils_test.py'
g144
S'FiletypeDictUnion_Works_test'
tp146
sI65
(S'/home/icholy/Code/src/github.com/icholy/ycmd/ycmd/completers/completer_utils_test.py'
g144
S'MatchesSemanticTrigger_Basic_test'
tp147
sI66
(S'/home/icholy/Code/src/github.com/icholy/ycmd/ycmd/completers/completer_utils_test.py'
g144
S'MatchesSemanticTrigger_JustTrigger_test'
tp148
sI67
(S'/home/icholy/Code/src/github.com/icholy/ycmd/ycmd/completers/completer_utils_test.py'
g144
S'MatchesSemanticTrigger_TriggerBetweenWords_test'
tp149
sI68
(S'/home/icholy/Code/src/github.com/icholy/ycmd/ycmd/completers/completer_utils_test.py'
g144
S'MatchesSemanticTrigger_BadInput_test'
tp150
sI69
(S'/home/icholy/Code/src/github.com/icholy/ycmd/ycmd/completers/completer_utils_test.py'
g144
S'MatchesSemanticTrigger_TriggerIsWrong_test'
tp151
sI70
(S'/home/icholy/Code/src/github.com/icholy/ycmd/ycmd/completers/completer_utils_test.py'
g144
S'MatchesSemanticTrigger_LongerTrigger_test'
tp152
sI71
(S'/home/icholy/Code/src/github.com/icholy/ycmd/ycmd/completers/completer_utils_test.py'
g144
S'MatchesSemanticTrigger_OneTriggerMatches_test'
tp153
sI72
(S'/home/icholy/Code/src/github.com/icholy/ycmd/ycmd/completers/completer_utils_test.py'
g144
S'MatchesSemanticTrigger_RegexTrigger_test'
tp154
sI73
(S'/home/icholy/Code/src/github.com/icholy/ycmd/ycmd/completers/completer_utils_test.py'
g144
S'MatchingSemanticTrigger_Basic_test'
tp155
sI74
(S'/home/icholy/Code/src/github.com/icholy/ycmd/ycmd/completers/completer_utils_test.py'
g144
S'PreparedTriggers_Basic_test'
tp156
sI75
(S'/home/icholy/Code/src/github.com/icholy/ycmd/ycmd/completers/completer_utils_test.py'
g144
S'PreparedTriggers_OnlySomeFiletypesSelected_test'
tp157
sI76
(S'/home/icholy/Code/src/github.com/icholy/ycmd/ycmd/completers/completer_utils_test.py'
g144
S'PreparedTriggers_UserTriggers_test'
tp158
sI77
(S'/home/icholy/Code/src/github.com/icholy/ycmd/ycmd/completers/completer_utils_test.py'
g144
S'PreparedTriggers_ObjectiveC_test'
tp159
sI78
(S'/home/icholy/Code/src/github.com/icholy/ycmd/ycmd/tests/cs/diagnostics_test.py'
S'ycmd.tests.cs.diagnostics_test'
p160
S'Cs_Diagnostics_test.Basic_test'
tp161
sI79
(S'/home/icholy/Code/src/github.com/icholy/ycmd/ycmd/tests/cs/diagnostics_test.py'
g160
S'Cs_Diagnostics_test.MultipleSolution_test'
tp162
sI80
(S'/home/icholy/Code/src/github.com/icholy/ycmd/ycmd/tests/cs/diagnostics_test.py'
g160
S'Cs_Diagnostics_test.ZeroBasedLineAndColumn_test'
tp163
sI81
(S'/home/icholy/Code/src/github.com/icholy/ycmd/ycmd/tests/cs/get_completions_test.py'
S'ycmd.tests.cs.get_completions_test'
p164
S'Cs_GetCompletions_test.Basic_test'
tp165
sI82
(S'/home/icholy/Code/src/github.com/icholy/ycmd/ycmd/tests/cs/get_completions_test.py'
g164
S'Cs_GetCompletions_test.DoesntStartWithAmbiguousMultipleSolutions_test'
tp166
sI83
(S'/home/icholy/Code/src/github.com/icholy/ycmd/ycmd/tests/cs/get_completions_test.py'
g164
S'Cs_GetCompletions_test.ExtraConfStoreAbsolute_test'
tp167
sI84
(S'/home/icholy/Code/src/github.com/icholy/ycmd/ycmd/tests/cs/get_completions_test.py'
g164
S'Cs_GetCompletions_test.ExtraConfStoreNonexisting_test'
tp168
sI85
(S'/home/icholy/Code/src/github.com/icholy/ycmd/ycmd/tests/cs/get_completions_test.py'
g164
S'Cs_GetCompletions_test.ExtraConfStoreRelative_test'
tp169
sI86
(S'/home/icholy/Code/src/github.com/icholy/ycmd/ycmd/tests/cs/get_completions_test.py'
g164
S'Cs_GetCompletions_test.ForcedDividesCache_test'
tp170
sI87
(S'/home/icholy/Code/src/github.com/icholy/ycmd/ycmd/tests/cs/get_completions_test.py'
g164
S'Cs_GetCompletions_test.ForcedReturnsResults_test'
tp171
sI88
(S'/home/icholy/Code/src/github.com/icholy/ycmd/ycmd/tests/cs/get_completions_test.py'
g164
S'Cs_GetCompletions_test.HasBothImportsAndNonImport_test'
tp172
sI89
(S'/home/icholy/Code/src/github.com/icholy/ycmd/ycmd/tests/cs/get_completions_test.py'
g164
S'Cs_GetCompletions_test.ImportsOrderedAfter_test'
tp173
sI90
(S'/home/icholy/Code/src/github.com/icholy/ycmd/ycmd/tests/cs/get_completions_test.py'
g164
S'Cs_GetCompletions_test.MultipleSolution_test'
tp174
sI91
(S'/home/icholy/Code/src/github.com/icholy/ycmd/ycmd/tests/cs/get_completions_test.py'
g164
S'Cs_GetCompletions_test.NonForcedReturnsNoResults_test'
tp175
sI92
(S'/home/icholy/Code/src/github.com/icholy/ycmd/ycmd/tests/cs/get_completions_test.py'
g164
S'Cs_GetCompletions_test.PathWithSpace_test'
tp176
sI93
(S'/home/icholy/Code/src/github.com/icholy/ycmd/ycmd/tests/cs/get_completions_test.py'
g164
S'Cs_GetCompletions_test.ReloadSolution_Basic_test'
tp177
sI94
(S'/home/icholy/Code/src/github.com/icholy/ycmd/ycmd/tests/cs/get_completions_test.py'
g164
S'Cs_GetCompletions_test.ReloadSolution_MultipleSolution_test'
tp178
sI95
(S'/home/icholy/Code/src/github.com/icholy/ycmd/ycmd/tests/cs/get_completions_test.py'
g164
S'Cs_GetCompletions_test.UsesSubfolderHint_test'
tp179
sI96
(S'/home/icholy/Code/src/github.com/icholy/ycmd/ycmd/tests/cs/get_completions_test.py'
g164
S'Cs_GetCompletions_test.UsesSuperfolderHint_test'
tp180
sI97
(S'/home/icholy/Code/src/github.com/icholy/ycmd/ycmd/tests/cs/subcommands_test.py'
S'ycmd.tests.cs.subcommands_test'
p181
S'Cs_Subcommands_test.CsCompleter_InvalidLocation_test'
tp182
sI98
(S'/home/icholy/Code/src/github.com/icholy/ycmd/ycmd/tests/cs/subcommands_test.py'
g181
S'Cs_Subcommands_test.FixIt_AddTextInLine_test'
tp183
sI99
(S'/home/icholy/Code/src/github.com/icholy/ycmd/ycmd/tests/cs/subcommands_test.py'
g181
S'Cs_Subcommands_test.FixIt_MultipleLines_test'
tp184
sI100
(S'/home/icholy/Code/src/github.com/icholy/ycmd/ycmd/tests/cs/subcommands_test.py'
g181
S'Cs_Subcommands_test.FixIt_RemoveSingleLine_test'
tp185
sI101
(S'/home/icholy/Code/src/github.com/icholy/ycmd/ycmd/tests/cs/subcommands_test.py'
g181
S'Cs_Subcommands_test.FixIt_ReplaceTextInLine_test'
tp186
sI102
(S'/home/icholy/Code/src/github.com/icholy/ycmd/ycmd/tests/cs/subcommands_test.py'
g181
S'Cs_Subcommands_test.FixIt_SpanFileEdge_test'
tp187
sI103
(S'/home/icholy/Code/src/github.com/icholy/ycmd/ycmd/tests/cs/subcommands_test.py'
g181
S'Cs_Subcommands_test.GetDoc_Function_test'
tp188
sI104
(S'/home/icholy/Code/src/github.com/icholy/ycmd/ycmd/tests/cs/subcommands_test.py'
g181
S'Cs_Subcommands_test.GetDoc_Variable_test'
tp189
sI105
(S'/home/icholy/Code/src/github.com/icholy/ycmd/ycmd/tests/cs/subcommands_test.py'
g181
S'Cs_Subcommands_test.GetType_Constant_test'
tp190
sI106
(S'/home/icholy/Code/src/github.com/icholy/ycmd/ycmd/tests/cs/subcommands_test.py'
g181
S'Cs_Subcommands_test.GetType_DocsIgnored_test'
tp191
sI107
(S'/home/icholy/Code/src/github.com/icholy/ycmd/ycmd/tests/cs/subcommands_test.py'
g181
S'Cs_Subcommands_test.GetType_EmptyMessage_test'
tp192
sI108
(S'/home/icholy/Code/src/github.com/icholy/ycmd/ycmd/tests/cs/subcommands_test.py'
g181
S'Cs_Subcommands_test.GetType_VariableDeclaration_test'
tp193
sI109
(S'/home/icholy/Code/src/github.com/icholy/ycmd/ycmd/tests/cs/subcommands_test.py'
g181
S'Cs_Subcommands_test.GetType_VariableUsage_test'
tp194
sI110
(S'/home/icholy/Code/src/github.com/icholy/ycmd/ycmd/tests/cs/subcommands_test.py'
g181
S'Cs_Subcommands_test.GoToImplementationElseDeclaration_MultipleImplementations_test'
tp195
sI111
(S'/home/icholy/Code/src/github.com/icholy/ycmd/ycmd/tests/cs/subcommands_test.py'
g181
S'Cs_Subcommands_test.GoToImplementationElseDeclaration_NoImplementation_test'
tp196
sI112
(S'/home/icholy/Code/src/github.com/icholy/ycmd/ycmd/tests/cs/subcommands_test.py'
g181
S'Cs_Subcommands_test.GoToImplementationElseDeclaration_SingleImplementation_test'
tp197
sI113
(S'/home/icholy/Code/src/github.com/icholy/ycmd/ycmd/tests/cs/subcommands_test.py'
g181
S'Cs_Subcommands_test.GoToImplementation_Basic_test'
tp198
sI114
(S'/home/icholy/Code/src/github.com/icholy/ycmd/ycmd/tests/cs/subcommands_test.py'
g181
S'Cs_Subcommands_test.GoToImplementation_NoImplementation_test'
tp199
sI115
(S'/home/icholy/Code/src/github.com/icholy/ycmd/ycmd/tests/cs/subcommands_test.py'
g181
S'Cs_Subcommands_test.GoTo_Basic_test'
tp200
sI116
(S'/home/icholy/Code/src/github.com/icholy/ycmd/ycmd/tests/cs/subcommands_test.py'
g181
S'Cs_Subcommands_test.StopServer_KeepLogFiles_test'
tp201
sI117
(S'/home/icholy/Code/src/github.com/icholy/ycmd/ycmd/tests/cs/subcommands_test.py'
g181
S'Cs_Subcommands_test.StopServer_NoErrorIfNotStarted_test'
tp202
sI118
(S'/home/icholy/Code/src/github.com/icholy/ycmd/ycmd/tests/go/get_completions_test.py'
S'ycmd.tests.go.get_completions_test'
S'Go_GetCompletions_test.Basic_test'
tp203
sI119
(S'/home/icholy/Code/src/github.com/icholy/ycmd/ycmd/tests/javascript/event_notification_test.py'
S'ycmd.tests.javascript.event_notification_test'
p204
S'Javascript_EventNotification_test.OnFileReadyToParse_NoProjectFile_test'
tp205
sI120
(S'/home/icholy/Code/src/github.com/icholy/ycmd/ycmd/tests/javascript/event_notification_test.py'
g204
S'Javascript_EventNotification_test.OnFileReadyToParse_ProjectFile_cwd_test'
tp206
sI121
(S'/home/icholy/Code/src/github.com/icholy/ycmd/ycmd/tests/javascript/event_notification_test.py'
g204
S'Javascript_EventNotification_test.OnFileReadyToParse_ProjectFile_parentdir_test'
tp207
sI122
(S'/home/icholy/Code/src/github.com/icholy/ycmd/ycmd/tests/javascript/event_notification_test.py'
g204
S'Javascript_EventNotification_test.OnFileReadyToParse_UseGlobalConfig_test'
tp208
sI123
(S'/home/icholy/Code/src/github.com/icholy/ycmd/ycmd/tests/javascript/get_completions_test.py'
S'ycmd.tests.javascript.get_completions_test'
p209
S'Javascript_GetCompletions_test.DirtyNamedBuffers_test'
tp210
sI124
(S'/home/icholy/Code/src/github.com/icholy/ycmd/ycmd/tests/javascript/get_completions_test.py'
g209
S'Javascript_GetCompletions_test.NoQuery_test'
tp211
sI125
(S'/home/icholy/Code/src/github.com/icholy/ycmd/ycmd/tests/javascript/get_completions_test.py'
g209
S'Javascript_GetCompletions_test.Query_test'
tp212
sI126
(S'/home/icholy/Code/src/github.com/icholy/ycmd/ycmd/tests/javascript/get_completions_test.py'
g209
S'Javascript_GetCompletions_test.Require_NoQuery_test'
tp213
sI127
(S'/home/icholy/Code/src/github.com/icholy/ycmd/ycmd/tests/javascript/get_completions_test.py'
g209
S'Javascript_GetCompletions_test.Require_Query_LCS_test'
tp214
sI128
(S'/home/icholy/Code/src/github.com/icholy/ycmd/ycmd/tests/javascript/get_completions_test.py'
g209
S'Javascript_GetCompletions_test.Require_Query_test'
tp215
sI129
(S'/home/icholy/Code/src/github.com/icholy/ycmd/ycmd/tests/javascript/get_completions_test.py'
g209
S'Javascript_GetCompletions_test.ReturnsDocsInCompletions_test'
tp216
sI130
(S'/home/icholy/Code/src/github.com/icholy/ycmd/ycmd/tests/javascript/subcommands_test.py'
S'ycmd.tests.javascript.subcommands_test'
p217
S'Javascript_Subcommands_test.DefinedSubcommands_test'
tp218
sI131
(S'/home/icholy/Code/src/github.com/icholy/ycmd/ycmd/tests/javascript/subcommands_test.py'
g217
S'Javascript_Subcommands_test.GetDocWithNoItendifier_test'
tp219
sI132
(S'/home/icholy/Code/src/github.com/icholy/ycmd/ycmd/tests/javascript/subcommands_test.py'
g217
S'Javascript_Subcommands_test.GetDoc_test'
tp220
sI133
(S'/home/icholy/Code/src/github.com/icholy/ycmd/ycmd/tests/javascript/subcommands_test.py'
g217
S'Javascript_Subcommands_test.GetType_test'
tp221
sI134
(S'/home/icholy/Code/src/github.com/icholy/ycmd/ycmd/tests/javascript/subcommands_test.py'
g217
S'Javascript_Subcommands_test.GoToDefinition_test'
tp222
sI135
(S'/home/icholy/Code/src/github.com/icholy/ycmd/ycmd/tests/javascript/subcommands_test.py'
g217
S'Javascript_Subcommands_test.GoToReferences_test'
tp223
sI136
(S'/home/icholy/Code/src/github.com/icholy/ycmd/ycmd/tests/javascript/subcommands_test.py'
g217
S'Javascript_Subcommands_test.GoTo_test'
tp224
sI137
(S'/home/icholy/Code/src/github.com/icholy/ycmd/ycmd/tests/javascript/subcommands_test.py'
g217
S'Javascript_Subcommands_test.RefactorRename_Missing_New_Name_test'
tp225
sI138
(S'/home/icholy/Code/src/github.com/icholy/ycmd/ycmd/tests/javascript/subcommands_test.py'
g217
S'Javascript_Subcommands_test.RefactorRename_MultipleFiles_OnFileReadyToParse_test'
tp226
sI139
(S'/home/icholy/Code/src/github.com/icholy/ycmd/ycmd/tests/javascript/subcommands_test.py'
g217
S'Javascript_Subcommands_test.RefactorRename_MultipleFiles_test'
tp227
sI140
(S'/home/icholy/Code/src/github.com/icholy/ycmd/ycmd/tests/javascript/subcommands_test.py'
g217
S'Javascript_Subcommands_test.RefactorRename_Simple_test'
tp228
sI141
(S'/home/icholy/Code/src/github.com/icholy/ycmd/ycmd/tests/python/get_completions_test.py'
S'ycmd.tests.python.get_completions_test'
p229
S'Python_GetCompletions_test.Basic_test'
tp230
sI142
(S'/home/icholy/Code/src/github.com/icholy/ycmd/ycmd/tests/python/get_completions_test.py'
g229
S'Python_GetCompletions_test.NoSuggestions_Fallback_test'
tp231
sI143
(S'/home/icholy/Code/src/github.com/icholy/ycmd/ycmd/tests/python/get_completions_test.py'
g229
S'Python_GetCompletions_test.UnicodeDescription_test'
tp232
sI144
(S'/home/icholy/Code/src/github.com/icholy/ycmd/ycmd/tests/python/subcommands_test.py'
S'ycmd.tests.python.subcommands_test'
p233
S'Python_Subcommands_test.GetDoc_Class_test'
tp234
sI145
(S'/home/icholy/Code/src/github.com/icholy/ycmd/ycmd/tests/python/subcommands_test.py'
g233
S'Python_Subcommands_test.GetDoc_Method_test'
tp235
sI146
(S'/home/icholy/Code/src/github.com/icholy/ycmd/ycmd/tests/python/subcommands_test.py'
g233
S'Python_Subcommands_test.GoToDefinition_NotFound_test'
tp236
sI147
(S'/home/icholy/Code/src/github.com/icholy/ycmd/ycmd/tests/python/subcommands_test.py'
g233
S'Python_Subcommands_test.GoToReferences_test'
tp237
sI148
(S'/home/icholy/Code/src/github.com/icholy/ycmd/ycmd/tests/python/subcommands_test.py'
g233
S'Python_Subcommands_test.GoTo_Variation_ZeroBasedLineAndColumn_test'
tp238
sI149
(S'/home/icholy/Code/src/github.com/icholy/ycmd/ycmd/tests/python/subcommands_test.py'
g233
S'Python_Subcommands_test.GoTo_test'
tp239
sI150
(S'/home/icholy/Code/src/github.com/icholy/ycmd/ycmd/tests/python/user_defined_python_test.py'
S'ycmd.tests.python.user_defined_python_test'
p240
S'UserDefinedPython_test.RestartServerWithArgument_WillUseTheSpecifiedPython_test'
tp241
sI151
(S'/home/icholy/Code/src/github.com/icholy/ycmd/ycmd/tests/python/user_defined_python_test.py'
g240
S'UserDefinedPython_test.RestartServerWithNonExistingPythonArgument_test'
tp242
sI152
(S'/home/icholy/Code/src/github.com/icholy/ycmd/ycmd/tests/python/user_defined_python_test.py'
g240
S'UserDefinedPython_test.RestartServerWithoutArguments_WillReuseTheLastPython_test'
tp243
sI153
(S'/home/icholy/Code/src/github.com/icholy/ycmd/ycmd/tests/python/user_defined_python_test.py'
g240
S'UserDefinedPython_test.WhenExistingPythonIsGiven_ThatIsUsed_test'
tp244
sI154
(S'/home/icholy/Code/src/github.com/icholy/ycmd/ycmd/tests/python/user_defined_python_test.py'
g240
S'UserDefinedPython_test.WhenNonExistentPythonIsGiven_ReturnAnError_test'
tp245
sI155
(S'/home/icholy/Code/src/github.com/icholy/ycmd/ycmd/tests/python/user_defined_python_test.py'
g240
S'UserDefinedPython_test.WithoutAnyOption_DefaultToYcmdPython_test'
tp246
sI156
(S'/home/icholy/Code/src/github.com/icholy/ycmd/ycmd/tests/rust/get_completions_test.py'
S'ycmd.tests.rust.get_completions_test'
p247
S'Rust_GetCompletions_test.Basic_test'
tp248
sI157
(S'/home/icholy/Code/src/github.com/icholy/ycmd/ycmd/tests/rust/get_completions_test.py'
g247
S'Rust_GetCompletions_test.WhenStandardLibraryCompletionFails_MentionRustSrcPath_test'
tp249
sI158
(S'/home/icholy/Code/src/github.com/icholy/ycmd/ycmd/tests/rust/subcommands_test.py'
S'ycmd.tests.rust.subcommands_test'
S'Rust_Subcommands_test.GoTo_all_test'
tp250
sI159
(S'/home/icholy/Code/src/github.com/icholy/ycmd/ycmd/tests/typescript/get_completions_test.py'
S'ycmd.tests.typescript.get_completions_test'
p251
S'TypeScript_GetCompletions_test.Basic_test'
tp252
sI160
(S'/home/icholy/Code/src/github.com/icholy/ycmd/ycmd/tests/typescript/get_completions_test.py'
g251
S'TypeScript_GetCompletions_test.MaxDetailedCompletion_test'
tp253
sI161
(S'/home/icholy/Code/src/github.com/icholy/ycmd/ycmd/tests/typescript/subcommands_test.py'
S'ycmd.tests.typescript.subcommands_test'
p254
S'TypeScript_Subcommands_test.GetDoc_Class_test'
tp255
sI162
(S'/home/icholy/Code/src/github.com/icholy/ycmd/ycmd/tests/typescript/subcommands_test.py'
g254
S'TypeScript_Subcommands_test.GetDoc_Method_test'
tp256
sI163
(S'/home/icholy/Code/src/github.com/icholy/ycmd/ycmd/tests/typescript/subcommands_test.py'
g254
S'TypeScript_Subcommands_test.GetType_Basic_test'
tp257
sI164
(S'/home/icholy/Code/src/github.com/icholy/ycmd/ycmd/tests/typescript/subcommands_test.py'
g254
S'TypeScript_Subcommands_test.GetType_HasNoType_test'
tp258
sI165
(S'/home/icholy/Code/src/github.com/icholy/ycmd/ycmd/tests/check_core_version_test.py'
S'ycmd.tests.check_core_version_test'
S'CompatibleWithCurrentCoreVersion_test'
tp259
sI166
(S'/home/icholy/Code/src/github.com/icholy/ycmd/ycmd/tests/detailed_diagnostics_test.py'
S'ycmd.tests.detailed_diagnostics_test'
p260
S'Diagnostics_test.DoesWork_test'
tp261
sI167
(S'/home/icholy/Code/src/github.com/icholy/ycmd/ycmd/tests/detailed_diagnostics_test.py'
g260
S'Diagnostics_test.DoesntWork_test'
tp262
sI168
(S'/home/icholy/Code/src/github.com/icholy/ycmd/ycmd/tests/extra_conf_store_test.py'
S'ycmd.tests.extra_conf_store_test'
p263
S'PathsToAllParentFolders_Basic_test'
tp264
sI169
(S'/home/icholy/Code/src/github.com/icholy/ycmd/ycmd/tests/extra_conf_store_test.py'
g263
S'PathsToAllParentFolders_FileAtRoot_test'
tp265
sI170
(S'/home/icholy/Code/src/github.com/icholy/ycmd/ycmd/tests/extra_conf_store_test.py'
g263
S'PathsToAllParentFolders_WindowsPath_test'
tp266
sI171
(S'/home/icholy/Code/src/github.com/icholy/ycmd/ycmd/tests/get_completions_test.py'
S'ycmd.tests.get_completions_test'
p267
S'GetCompletions_test.ForceSemantic_Works_test'
tp268
sI172
(S'/home/icholy/Code/src/github.com/icholy/ycmd/ycmd/tests/get_completions_test.py'
g267
S'GetCompletions_test.IdentifierCompleter_StartColumn_AfterWord_test'
tp269
sI173
(S'/home/icholy/Code/src/github.com/icholy/ycmd/ycmd/tests/get_completions_test.py'
g267
S'GetCompletions_test.IdentifierCompleter_SyntaxKeywordsAdded_test'
tp270
sI174
(S'/home/icholy/Code/src/github.com/icholy/ycmd/ycmd/tests/get_completions_test.py'
g267
S'GetCompletions_test.IdentifierCompleter_WorksForSpecialIdentifierChars_test'
tp271
sI175
(S'/home/icholy/Code/src/github.com/icholy/ycmd/ycmd/tests/get_completions_test.py'
g267
S'GetCompletions_test.IdentifierCompleter_Works_test'
tp272
sI176
(S'/home/icholy/Code/src/github.com/icholy/ycmd/ycmd/tests/get_completions_test.py'
g267
S'GetCompletions_test.RequestValidation_NoLineNumException_test'
tp273
sI177
(S'/home/icholy/Code/src/github.com/icholy/ycmd/ycmd/tests/get_completions_test.py'
g267
S'GetCompletions_test.SemanticCompleter_WorksWhenTriggerIsIdentifier_test'
tp274
sI178
(S'/home/icholy/Code/src/github.com/icholy/ycmd/ycmd/tests/get_completions_test.py'
g267
S'GetCompletions_test.UltiSnipsCompleter_UnusedWhenOffWithOption_test'
tp275
sI179
(S'/home/icholy/Code/src/github.com/icholy/ycmd/ycmd/tests/get_completions_test.py'
g267
S'GetCompletions_test.UltiSnipsCompleter_Works_test'
tp276
sI180
(S'/home/icholy/Code/src/github.com/icholy/ycmd/ycmd/tests/identifier_utils_test.py'
S'ycmd.tests.identifier_utils_test'
p277
S'RemoveIdentifierFreeText_CppComments_test'
tp278
sI181
(S'/home/icholy/Code/src/github.com/icholy/ycmd/ycmd/tests/identifier_utils_test.py'
g277
S'RemoveIdentifierFreeText_PythonComments_test'
tp279
sI182
(S'/home/icholy/Code/src/github.com/icholy/ycmd/ycmd/tests/identifier_utils_test.py'
g277
S'RemoveIdentifierFreeText_CstyleComments_test'
tp280
sI183
(S'/home/icholy/Code/src/github.com/icholy/ycmd/ycmd/tests/identifier_utils_test.py'
g277
S'RemoveIdentifierFreeText_SimpleSingleQuoteString_test'
tp281
sI184
(S'/home/icholy/Code/src/github.com/icholy/ycmd/ycmd/tests/identifier_utils_test.py'
g277
S'RemoveIdentifierFreeText_SimpleDoubleQuoteString_test'
tp282
sI185
(S'/home/icholy/Code/src/github.com/icholy/ycmd/ycmd/tests/identifier_utils_test.py'
g277
S'RemoveIdentifierFreeText_EscapedQuotes_test'
tp283
sI186
(S'/home/icholy/Code/src/github.com/icholy/ycmd/ycmd/tests/identifier_utils_test.py'
g277
S'RemoveIdentifierFreeText_SlashesInStrings_test'
tp284
sI187
(S'/home/icholy/Code/src/github.com/icholy/ycmd/ycmd/tests/identifier_utils_test.py'
g277
S'RemoveIdentifierFreeText_EscapedQuotesStartStrings_test'
tp285
sI188
(S'/home/icholy/Code/src/github.com/icholy/ycmd/ycmd/tests/identifier_utils_test.py'
g277
S'RemoveIdentifierFreeText_NoMultilineString_test'
tp286
sI189
(S'/home/icholy/Code/src/github.com/icholy/ycmd/ycmd/tests/identifier_utils_test.py'
g277
S'RemoveIdentifierFreeText_PythonMultilineString_test'
tp287
sI190
(S'/home/icholy/Code/src/github.com/icholy/ycmd/ycmd/tests/identifier_utils_test.py'
g277
S'ExtractIdentifiersFromText_test'
tp288
sI191
(S'/home/icholy/Code/src/github.com/icholy/ycmd/ycmd/tests/identifier_utils_test.py'
g277
S'ExtractIdentifiersFromText_Css_test'
tp289
sI192
(S'/home/icholy/Code/src/github.com/icholy/ycmd/ycmd/tests/identifier_utils_test.py'
g277
S'ExtractIdentifiersFromText_Html_test'
tp290
sI193
(S'/home/icholy/Code/src/github.com/icholy/ycmd/ycmd/tests/identifier_utils_test.py'
g277
S'IsIdentifier_generic_test'
tp291
sI194
(S'/home/icholy/Code/src/github.com/icholy/ycmd/ycmd/tests/identifier_utils_test.py'
g277
S'IsIdentifier_Css_test'
tp292
sI195
(S'/home/icholy/Code/src/github.com/icholy/ycmd/ycmd/tests/identifier_utils_test.py'
g277
S'IsIdentifier_R_test'
tp293
sI196
(S'/home/icholy/Code/src/github.com/icholy/ycmd/ycmd/tests/identifier_utils_test.py'
g277
S'IsIdentifier_Clojure_test'
tp294
sI197
(S'/home/icholy/Code/src/github.com/icholy/ycmd/ycmd/tests/identifier_utils_test.py'
g277
S'IsIdentifier_Haskell_test'
tp295
sI198
(S'/home/icholy/Code/src/github.com/icholy/ycmd/ycmd/tests/identifier_utils_test.py'
g277
S'IsIdentifier_Perl6_test'
tp296
sI199
(S'/home/icholy/Code/src/github.com/icholy/ycmd/ycmd/tests/identifier_utils_test.py'
g277
S'StartOfLongestIdentifierEndingAtIndex_Simple_test'
tp297
sI200
(S'/home/icholy/Code/src/github.com/icholy/ycmd/ycmd/tests/identifier_utils_test.py'
g277
S'StartOfLongestIdentifierEndingAtIndex_BadInput_test'
tp298
sI201
(S'/home/icholy/Code/src/github.com/icholy/ycmd/ycmd/tests/identifier_utils_test.py'
g277
S'StartOfLongestIdentifierEndingAtIndex_Punctuation_test'
tp299
sI202
(S'/home/icholy/Code/src/github.com/icholy/ycmd/ycmd/tests/identifier_utils_test.py'
g277
S'StartOfLongestIdentifierEndingAtIndex_PunctuationWithUnicode_test'
tp300
sI203
(S'/home/icholy/Code/src/github.com/icholy/ycmd/ycmd/tests/identifier_utils_test.py'
g277
S'StartOfLongestIdentifierEndingAtIndex_Entire_Simple_test'
tp301
sI204
(S'/home/icholy/Code/src/github.com/icholy/ycmd/ycmd/tests/identifier_utils_test.py'
g277
S'StartOfLongestIdentifierEndingAtIndex_Entire_AllBad_test'
tp302
sI205
(S'/home/icholy/Code/src/github.com/icholy/ycmd/ycmd/tests/identifier_utils_test.py'
g277
S'StartOfLongestIdentifierEndingAtIndex_Entire_FirstCharNotNumber_test'
tp303
sI206
(S'/home/icholy/Code/src/github.com/icholy/ycmd/ycmd/tests/identifier_utils_test.py'
g277
S'StartOfLongestIdentifierEndingAtIndex_Entire_SubIdentifierValid_test'
tp304
sI207
(S'/home/icholy/Code/src/github.com/icholy/ycmd/ycmd/tests/identifier_utils_test.py'
g277
S'StartOfLongestIdentifierEndingAtIndex_Entire_Unicode_test'
tp305
sI208
(S'/home/icholy/Code/src/github.com/icholy/ycmd/ycmd/tests/identifier_utils_test.py'
g277
S'IdentifierAtIndex_Entire_Simple_test'
tp306
sI209
(S'/home/icholy/Code/src/github.com/icholy/ycmd/ycmd/tests/identifier_utils_test.py'
g277
S'IdentifierAtIndex_Entire_Unicode_test'
tp307
sI210
(S'/home/icholy/Code/src/github.com/icholy/ycmd/ycmd/tests/identifier_utils_test.py'
g277
S'IdentifierAtIndex_BadInput_test'
tp308
sI211
(S'/home/icholy/Code/src/github.com/icholy/ycmd/ycmd/tests/identifier_utils_test.py'
g277
S'IdentifierAtIndex_IndexPastIdent_test'
tp309
sI212
(S'/home/icholy/Code/src/github.com/icholy/ycmd/ycmd/tests/identifier_utils_test.py'
g277
S'IdentifierAtIndex_StopsAtNonIdentifier_test'
tp310
sI213
(S'/home/icholy/Code/src/github.com/icholy/ycmd/ycmd/tests/identifier_utils_test.py'
g277
S'IdentifierAtIndex_LooksAhead_Success_test'
tp311
sI214
(S'/home/icholy/Code/src/github.com/icholy/ycmd/ycmd/tests/identifier_utils_test.py'
g277
S'IdentifierAtIndex_LooksAhead_Failure_test'
tp312
sI215
(S'/home/icholy/Code/src/github.com/icholy/ycmd/ycmd/tests/identifier_utils_test.py'
g277
S'IdentifierAtIndex_SingleCharIdent_test'
tp313
sI216
(S'/home/icholy/Code/src/github.com/icholy/ycmd/ycmd/tests/identifier_utils_test.py'
g277
S'IdentifierAtIndex_Css_test'
tp314
sI217
(S'/home/icholy/Code/src/github.com/icholy/ycmd/ycmd/tests/misc_handlers_test.py'
S'ycmd.tests.misc_handlers_test'
p315
S'MiscHandlers_test.EventNotification_AlwaysJsonResponse_test'
tp316
sI218
(S'/home/icholy/Code/src/github.com/icholy/ycmd/ycmd/tests/misc_handlers_test.py'
g315
S'MiscHandlers_test.SemanticCompletionAvailable_test'
tp317
sI219
(S'/home/icholy/Code/src/github.com/icholy/ycmd/ycmd/tests/request_validation_test.py'
S'ycmd.tests.request_validation_test'
p318
S'EnsureRequestValid_AllOk_test'
tp319
sI220
(S'/home/icholy/Code/src/github.com/icholy/ycmd/ycmd/tests/request_validation_test.py'
g318
S'EnsureRequestValid_MissingLineNum_test'
tp320
sI221
(S'/home/icholy/Code/src/github.com/icholy/ycmd/ycmd/tests/request_validation_test.py'
g318
S'EnsureRequestValid_MissingColumnNum_test'
tp321
sI222
(S'/home/icholy/Code/src/github.com/icholy/ycmd/ycmd/tests/request_validation_test.py'
g318
S'EnsureRequestValid_MissingFilepath_test'
tp322
sI223
(S'/home/icholy/Code/src/github.com/icholy/ycmd/ycmd/tests/request_validation_test.py'
g318
S'EnsureRequestValid_MissingFileData_test'
tp323
sI224
(S'/home/icholy/Code/src/github.com/icholy/ycmd/ycmd/tests/request_validation_test.py'
g318
S'EnsureRequestValid_MissingFileDataContents_test'
tp324
sI225
(S'/home/icholy/Code/src/github.com/icholy/ycmd/ycmd/tests/request_validation_test.py'
g318
S'EnsureRequestValid_MissingFileDataFiletypes_test'
tp325
sI226
(S'/home/icholy/Code/src/github.com/icholy/ycmd/ycmd/tests/request_validation_test.py'
g318
S'EnsureRequestValid_EmptyFileDataFiletypes_test'
tp326
sI227
(S'/home/icholy/Code/src/github.com/icholy/ycmd/ycmd/tests/request_validation_test.py'
g318
S'EnsureRequestValid_MissingEntryForFileInFileData_test'
tp327
sI228
(S'/home/icholy/Code/src/github.com/icholy/ycmd/ycmd/tests/request_wrap_test.py'
S'ycmd.tests.request_wrap_test'
p328
S'LineValue_OneLine_test'
tp329
sI229
(S'/home/icholy/Code/src/github.com/icholy/ycmd/ycmd/tests/request_wrap_test.py'
g328
S'LineValue_LastLine_test'
tp330
sI230
(S'/home/icholy/Code/src/github.com/icholy/ycmd/ycmd/tests/request_wrap_test.py'
g328
S'LineValue_MiddleLine_test'
tp331
sI231
(S'/home/icholy/Code/src/github.com/icholy/ycmd/ycmd/tests/request_wrap_test.py'
g328
S'LineValue_WindowsLines_test'
tp332
sI232
(S'/home/icholy/Code/src/github.com/icholy/ycmd/ycmd/tests/request_wrap_test.py'
g328
S'LineValue_MixedFormatLines_test'
tp333
sI233
(S'/home/icholy/Code/src/github.com/icholy/ycmd/ycmd/tests/request_wrap_test.py'
g328
S'LineValue_EmptyContents_test'
tp334
sI234
(S'/home/icholy/Code/src/github.com/icholy/ycmd/ycmd/tests/request_wrap_test.py'
g328
S'StartColumn_RightAfterDot_test'
tp335
sI235
(S'/home/icholy/Code/src/github.com/icholy/ycmd/ycmd/tests/request_wrap_test.py'
g328
S'StartColumn_Dot_test'
tp336
sI236
(S'/home/icholy/Code/src/github.com/icholy/ycmd/ycmd/tests/request_wrap_test.py'
g328
S'StartColumn_DotWithUnicode_test'
tp337
sI237
(S'/home/icholy/Code/src/github.com/icholy/ycmd/ycmd/tests/request_wrap_test.py'
g328
S'StartColumn_Paren_test'
tp338
sI238
(S'/home/icholy/Code/src/github.com/icholy/ycmd/ycmd/tests/request_wrap_test.py'
g328
S'StartColumn_AfterWholeWord_test'
tp339
sI239
(S'/home/icholy/Code/src/github.com/icholy/ycmd/ycmd/tests/request_wrap_test.py'
g328
S'StartColumn_AfterWholeWord_Html_test'
tp340
sI240
(S'/home/icholy/Code/src/github.com/icholy/ycmd/ycmd/tests/request_wrap_test.py'
g328
S'StartColumn_AfterWholeUnicodeWord_test'
tp341
sI241
(S'/home/icholy/Code/src/github.com/icholy/ycmd/ycmd/tests/request_wrap_test.py'
g328
S'StartColumn_InMiddleOfWholeWord_test'
tp342
sI242
(S'/home/icholy/Code/src/github.com/icholy/ycmd/ycmd/tests/request_wrap_test.py'
g328
S'StartColumn_ColumnOne_test'
tp343
sI243
(S'/home/icholy/Code/src/github.com/icholy/ycmd/ycmd/tests/request_wrap_test.py'
g328
S'Query_AtWordEnd_test'
tp344
sI244
(S'/home/icholy/Code/src/github.com/icholy/ycmd/ycmd/tests/request_wrap_test.py'
g328
S'Query_InWordMiddle_test'
tp345
sI245
(S'/home/icholy/Code/src/github.com/icholy/ycmd/ycmd/tests/request_wrap_test.py'
g328
S'Query_StartOfLine_test'
tp346
sI246
(S'/home/icholy/Code/src/github.com/icholy/ycmd/ycmd/tests/request_wrap_test.py'
g328
S'Query_StopsAtParen_test'
tp347
sI247
(S'/home/icholy/Code/src/github.com/icholy/ycmd/ycmd/tests/request_wrap_test.py'
g328
S'Query_InWhiteSpace_test'
tp348
sI248
(S'/home/icholy/Code/src/github.com/icholy/ycmd/ycmd/tests/subcommands_test.py'
S'ycmd.tests.subcommands_test'
p349
S'Subcommands_test.Basic_test'
tp350
sI249
(S'/home/icholy/Code/src/github.com/icholy/ycmd/ycmd/tests/subcommands_test.py'
g349
S'Subcommands_test.NoExplicitCompleterTargetSpecified_test'
tp351
sI250
(S'/home/icholy/Code/src/github.com/icholy/ycmd/ycmd/completers/cpp/tests/comment_strip_test.py'
S'ycmd.completers.cpp.tests.comment_strip_test'
Ntp352
sI251
(S'/home/icholy/Code/src/github.com/icholy/ycmd/ycmd/completers/cpp/tests/flags_test.py'
S'ycmd.completers.cpp.tests.flags_test'
Ntp353
sI252
(S'/home/icholy/Code/src/github.com/icholy/ycmd/ycmd/completers/general/tests/filename_completer_test.py'
S'ycmd.completers.general.tests.filename_completer_test'
Ntp354
ss.