(dp1
S'failed'
p2
(lp3
S'22'
p4
aS'23'
p5
aS'24'
p6
aS'32'
p7
aS'48'
p8
aS'49'
p9
aS'50'
p10
aS'51'
p11
aS'52'
p12
aS'53'
p13
aS'54'
p14
aS'55'
p15
aS'56'
p16
aS'57'
p17
aS'58'
p18
aS'59'
p19
aS'60'
p20
aS'61'
p21
aS'62'
p22
aS'63'
p23
aS'64'
p24
aS'65'
p25
aS'66'
p26
aS'67'
p27
aS'68'
p28
aS'69'
p29
aS'70'
p30
aS'71'
p31
aS'72'
p32
aS'73'
p33
aS'74'
p34
aS'75'
p35
aS'76'
p36
aS'77'
p37
aS'78'
p38
aS'79'
p39
aS'80'
p40
aS'81'
p41
aS'82'
p42
aS'83'
p43
aS'84'
p44
aS'85'
p45
aS'86'
p46
aS'87'
p47
aS'89'
p48
aS'90'
p49
aS'91'
p50
aS'92'
p51
aS'93'
p52
aS'94'
p53
aS'95'
p54
aS'96'
p55
aS'97'
p56
aS'98'
p57
aS'99'
p58
aS'100'
p59
aS'101'
p60
aS'102'
p61
aS'103'
p62
aS'104'
p63
aS'105'
p64
aS'106'
p65
aS'107'
p66
aS'108'
p67
aS'109'
p68
aS'110'
p69
asS'source_names'
p70
(lp71
S'.'
asS'ids'
p72
(dp73
I1
(S'/home/icholy/Code/src/github.com/icholy/ycmd/ycmd/completers/all/tests/identifier_completer_test.py'
S'ycmd.completers.all.tests.identifier_completer_test'
p74
S'GetCursorIdentifier_StartOfLine_test'
p75
tp76
sI2
(S'/home/icholy/Code/src/github.com/icholy/ycmd/ycmd/completers/all/tests/identifier_completer_test.py'
g74
S'GetCursorIdentifier_EndOfLine_test'
p77
tp78
sI3
(S'/home/icholy/Code/src/github.com/icholy/ycmd/ycmd/completers/all/tests/identifier_completer_test.py'
g74
S'GetCursorIdentifier_PastEndOfLine_test'
p79
tp80
sI4
(S'/home/icholy/Code/src/github.com/icholy/ycmd/ycmd/completers/all/tests/identifier_completer_test.py'
g74
S'GetCursorIdentifier_NegativeColumn_test'
p81
tp82
sI5
(S'/home/icholy/Code/src/github.com/icholy/ycmd/ycmd/completers/all/tests/identifier_completer_test.py'
g74
S'GetCursorIdentifier_StartOfLine_StopsAtNonIdentifierChar_test'
p83
tp84
sI6
(S'/home/icholy/Code/src/github.com/icholy/ycmd/ycmd/completers/all/tests/identifier_completer_test.py'
g74
S'GetCursorIdentifier_AtNonIdentifier_test'
p85
tp86
sI7
(S'/home/icholy/Code/src/github.com/icholy/ycmd/ycmd/completers/all/tests/identifier_completer_test.py'
g74
S'GetCursorIdentifier_WalksForwardForIdentifier_test'
p87
tp88
sI8
(S'/home/icholy/Code/src/github.com/icholy/ycmd/ycmd/completers/all/tests/identifier_completer_test.py'
g74
S'GetCursorIdentifier_FindsNothingForward_test'
p89
tp90
sI9
(S'/home/icholy/Code/src/github.com/icholy/ycmd/ycmd/completers/all/tests/identifier_completer_test.py'
g74
S'GetCursorIdentifier_SingleCharIdentifier_test'
p91
tp92
sI10
(S'/home/icholy/Code/src/github.com/icholy/ycmd/ycmd/completers/all/tests/identifier_completer_test.py'
g74
S'GetCursorIdentifier_StartsInMiddleOfIdentifier_test'
p93
tp94
sI11
(S'/home/icholy/Code/src/github.com/icholy/ycmd/ycmd/completers/all/tests/identifier_completer_test.py'
g74
S'GetCursorIdentifier_LineEmpty_test'
p95
tp96
sI12
(S'/home/icholy/Code/src/github.com/icholy/ycmd/ycmd/completers/all/tests/identifier_completer_test.py'
g74
S'PreviousIdentifier_Simple_test'
p97
tp98
sI13
(S'/home/icholy/Code/src/github.com/icholy/ycmd/ycmd/completers/all/tests/identifier_completer_test.py'
g74
S'PreviousIdentifier_ColumnInMiddleStillWholeIdent_test'
p99
tp100
sI14
(S'/home/icholy/Code/src/github.com/icholy/ycmd/ycmd/completers/all/tests/identifier_completer_test.py'
g74
S'PreviousIdentifier_IgnoreForwardIdents_test'
p101
tp102
sI15
(S'/home/icholy/Code/src/github.com/icholy/ycmd/ycmd/completers/all/tests/identifier_completer_test.py'
g74
S'PreviousIdentifier_IgnoreTooSmallIdent_test'
p103
tp104
sI16
(S'/home/icholy/Code/src/github.com/icholy/ycmd/ycmd/completers/all/tests/identifier_completer_test.py'
g74
S'PreviousIdentifier_IgnoreTooSmallIdent_DontContinueLooking_test'
p105
tp106
sI17
(S'/home/icholy/Code/src/github.com/icholy/ycmd/ycmd/completers/all/tests/identifier_completer_test.py'
g74
S'PreviousIdentifier_WhitespaceAfterIdent_test'
p107
tp108
sI18
(S'/home/icholy/Code/src/github.com/icholy/ycmd/ycmd/completers/all/tests/identifier_completer_test.py'
g74
S'PreviousIdentifier_JunkAfterIdent_test'
p109
tp110
sI19
(S'/home/icholy/Code/src/github.com/icholy/ycmd/ycmd/completers/all/tests/identifier_completer_test.py'
g74
S'PreviousIdentifier_IdentInMiddleOfJunk_test'
p111
tp112
sI20
(S'/home/icholy/Code/src/github.com/icholy/ycmd/ycmd/completers/all/tests/identifier_completer_test.py'
g74
S'PreviousIdentifier_IdentOnPreviousLine_test'
p113
tp114
sI21
(S'/home/icholy/Code/src/github.com/icholy/ycmd/ycmd/completers/all/tests/identifier_completer_test.py'
g74
S'PreviousIdentifier_IdentOnPreviousLine_JunkAfterIdent_test'
p115
tp116
sI22
(S'/home/icholy/Code/src/github.com/icholy/ycmd/ycmd/completers/cpp/tests/comment_strip_test.py'
p117
S'ycmd.completers.cpp.tests.comment_strip_test'
p118
Ntp119
sI23
(S'/home/icholy/Code/src/github.com/icholy/ycmd/ycmd/completers/cpp/tests/flags_test.py'
p120
S'ycmd.completers.cpp.tests.flags_test'
p121
Ntp122
sI24
(S'/home/icholy/Code/src/github.com/icholy/ycmd/ycmd/completers/general/tests/filename_completer_test.py'
p123
S'ycmd.completers.general.tests.filename_completer_test'
p124
Ntp125
sI25
(S'/home/icholy/Code/src/github.com/icholy/ycmd/ycmd/completers/go/tests/gocode_completer_test.py'
S'gocode_completer_test'
p126
S'GoCodeCompleter_test.ComputeCandidatesGoCodePanic_test'
tp127
sI26
(S'/home/icholy/Code/src/github.com/icholy/ycmd/ycmd/completers/go/tests/gocode_completer_test.py'
g126
S'GoCodeCompleter_test.ComputeCandidatesInnerAfterUnicode_test'
tp128
sI27
(S'/home/icholy/Code/src/github.com/icholy/ycmd/ycmd/completers/go/tests/gocode_completer_test.py'
g126
S'GoCodeCompleter_test.ComputeCandidatesInnerGoCodeFailure_test'
tp129
sI28
(S'/home/icholy/Code/src/github.com/icholy/ycmd/ycmd/completers/go/tests/gocode_completer_test.py'
g126
S'GoCodeCompleter_test.ComputeCandidatesInnerNoResultsFailure_test'
tp130
sI29
(S'/home/icholy/Code/src/github.com/icholy/ycmd/ycmd/completers/go/tests/gocode_completer_test.py'
g126
S'GoCodeCompleter_test.ComputeCandidatesInnerOffsetBeforeUnicode_test'
tp131
sI30
(S'/home/icholy/Code/src/github.com/icholy/ycmd/ycmd/completers/go/tests/gocode_completer_test.py'
g126
S'GoCodeCompleter_test.ComputeCandidatesInnerParseFailure_test'
tp132
sI31
(S'/home/icholy/Code/src/github.com/icholy/ycmd/ycmd/completers/go/tests/gocode_completer_test.py'
g126
S'GoCodeCompleter_test.ComputeCandidatesInner_test'
tp133
sI32
(S'/home/icholy/Code/src/github.com/icholy/ycmd/ycmd/completers/go/tests/gocode_completer_test.py'
g126
S'GoCodeCompleter_test.FindGoCodeBinary_test'
tp134
sI33
(S'/home/icholy/Code/src/github.com/icholy/ycmd/ycmd/completers/completer_utils_test.py'
S'ycmd.completers.completer_utils_test'
p135
S'FiletypeTriggerDictFromSpec_Works_test'
p136
tp137
sI34
(S'/home/icholy/Code/src/github.com/icholy/ycmd/ycmd/completers/completer_utils_test.py'
g135
S'FiletypeDictUnion_Works_test'
p138
tp139
sI35
(S'/home/icholy/Code/src/github.com/icholy/ycmd/ycmd/completers/completer_utils_test.py'
g135
S'MatchesSemanticTrigger_Basic_test'
p140
tp141
sI36
(S'/home/icholy/Code/src/github.com/icholy/ycmd/ycmd/completers/completer_utils_test.py'
g135
S'MatchesSemanticTrigger_JustTrigger_test'
p142
tp143
sI37
(S'/home/icholy/Code/src/github.com/icholy/ycmd/ycmd/completers/completer_utils_test.py'
g135
S'MatchesSemanticTrigger_TriggerBetweenWords_test'
p144
tp145
sI38
(S'/home/icholy/Code/src/github.com/icholy/ycmd/ycmd/completers/completer_utils_test.py'
g135
S'MatchesSemanticTrigger_BadInput_test'
p146
tp147
sI39
(S'/home/icholy/Code/src/github.com/icholy/ycmd/ycmd/completers/completer_utils_test.py'
g135
S'MatchesSemanticTrigger_TriggerIsWrong_test'
p148
tp149
sI40
(S'/home/icholy/Code/src/github.com/icholy/ycmd/ycmd/completers/completer_utils_test.py'
g135
S'MatchesSemanticTrigger_LongerTrigger_test'
p150
tp151
sI41
(S'/home/icholy/Code/src/github.com/icholy/ycmd/ycmd/completers/completer_utils_test.py'
g135
S'MatchesSemanticTrigger_OneTriggerMatches_test'
p152
tp153
sI42
(S'/home/icholy/Code/src/github.com/icholy/ycmd/ycmd/completers/completer_utils_test.py'
g135
S'MatchesSemanticTrigger_RegexTrigger_test'
p154
tp155
sI43
(S'/home/icholy/Code/src/github.com/icholy/ycmd/ycmd/completers/completer_utils_test.py'
g135
S'MatchingSemanticTrigger_Basic_test'
p156
tp157
sI44
(S'/home/icholy/Code/src/github.com/icholy/ycmd/ycmd/completers/completer_utils_test.py'
g135
S'PreparedTriggers_Basic_test'
p158
tp159
sI45
(S'/home/icholy/Code/src/github.com/icholy/ycmd/ycmd/completers/completer_utils_test.py'
g135
S'PreparedTriggers_OnlySomeFiletypesSelected_test'
p160
tp161
sI46
(S'/home/icholy/Code/src/github.com/icholy/ycmd/ycmd/completers/completer_utils_test.py'
g135
S'PreparedTriggers_UserTriggers_test'
p162
tp163
sI47
(S'/home/icholy/Code/src/github.com/icholy/ycmd/ycmd/completers/completer_utils_test.py'
g135
S'PreparedTriggers_ObjectiveC_test'
p164
tp165
sI48
(S'/home/icholy/Code/src/github.com/icholy/ycmd/ycmd/tests/cs/diagnostics_test.py'
S'ycmd.tests.cs.diagnostics_test'
p166
S'Cs_Diagnostics_test.Basic_test'
tp167
sI49
(S'/home/icholy/Code/src/github.com/icholy/ycmd/ycmd/tests/cs/diagnostics_test.py'
g166
S'Cs_Diagnostics_test.MultipleSolution_test'
tp168
sI50
(S'/home/icholy/Code/src/github.com/icholy/ycmd/ycmd/tests/cs/diagnostics_test.py'
g166
S'Cs_Diagnostics_test.ZeroBasedLineAndColumn_test'
tp169
sI51
(S'/home/icholy/Code/src/github.com/icholy/ycmd/ycmd/tests/cs/get_completions_test.py'
S'ycmd.tests.cs.get_completions_test'
p170
S'Cs_GetCompletions_test.Basic_test'
tp171
sI52
(S'/home/icholy/Code/src/github.com/icholy/ycmd/ycmd/tests/cs/get_completions_test.py'
g170
S'Cs_GetCompletions_test.DoesntStartWithAmbiguousMultipleSolutions_test'
tp172
sI53
(S'/home/icholy/Code/src/github.com/icholy/ycmd/ycmd/tests/cs/get_completions_test.py'
g170
S'Cs_GetCompletions_test.ExtraConfStoreAbsolute_test'
tp173
sI54
(S'/home/icholy/Code/src/github.com/icholy/ycmd/ycmd/tests/cs/get_completions_test.py'
g170
S'Cs_GetCompletions_test.ExtraConfStoreNonexisting_test'
tp174
sI55
(S'/home/icholy/Code/src/github.com/icholy/ycmd/ycmd/tests/cs/get_completions_test.py'
g170
S'Cs_GetCompletions_test.ExtraConfStoreRelative_test'
tp175
sI56
(S'/home/icholy/Code/src/github.com/icholy/ycmd/ycmd/tests/cs/get_completions_test.py'
g170
S'Cs_GetCompletions_test.ForcedDividesCache_test'
tp176
sI57
(S'/home/icholy/Code/src/github.com/icholy/ycmd/ycmd/tests/cs/get_completions_test.py'
g170
S'Cs_GetCompletions_test.ForcedReturnsResults_test'
tp177
sI58
(S'/home/icholy/Code/src/github.com/icholy/ycmd/ycmd/tests/cs/get_completions_test.py'
g170
S'Cs_GetCompletions_test.HasBothImportsAndNonImport_test'
tp178
sI59
(S'/home/icholy/Code/src/github.com/icholy/ycmd/ycmd/tests/cs/get_completions_test.py'
g170
S'Cs_GetCompletions_test.ImportsOrderedAfter_test'
tp179
sI60
(S'/home/icholy/Code/src/github.com/icholy/ycmd/ycmd/tests/cs/get_completions_test.py'
g170
S'Cs_GetCompletions_test.MultipleSolution_test'
tp180
sI61
(S'/home/icholy/Code/src/github.com/icholy/ycmd/ycmd/tests/cs/get_completions_test.py'
g170
S'Cs_GetCompletions_test.NonForcedReturnsNoResults_test'
tp181
sI62
(S'/home/icholy/Code/src/github.com/icholy/ycmd/ycmd/tests/cs/get_completions_test.py'
g170
S'Cs_GetCompletions_test.PathWithSpace_test'
tp182
sI63
(S'/home/icholy/Code/src/github.com/icholy/ycmd/ycmd/tests/cs/get_completions_test.py'
g170
S'Cs_GetCompletions_test.ReloadSolution_Basic_test'
tp183
sI64
(S'/home/icholy/Code/src/github.com/icholy/ycmd/ycmd/tests/cs/get_completions_test.py'
g170
S'Cs_GetCompletions_test.ReloadSolution_MultipleSolution_test'
tp184
sI65
(S'/home/icholy/Code/src/github.com/icholy/ycmd/ycmd/tests/cs/get_completions_test.py'
g170
S'Cs_GetCompletions_test.UsesSubfolderHint_test'
tp185
sI66
(S'/home/icholy/Code/src/github.com/icholy/ycmd/ycmd/tests/cs/get_completions_test.py'
g170
S'Cs_GetCompletions_test.UsesSuperfolderHint_test'
tp186
sI67
(S'/home/icholy/Code/src/github.com/icholy/ycmd/ycmd/tests/cs/subcommands_test.py'
S'ycmd.tests.cs.subcommands_test'
p187
S'Cs_Subcommands_test.CsCompleter_InvalidLocation_test'
tp188
sI68
(S'/home/icholy/Code/src/github.com/icholy/ycmd/ycmd/tests/cs/subcommands_test.py'
g187
S'Cs_Subcommands_test.FixIt_AddTextInLine_test'
tp189
sI69
(S'/home/icholy/Code/src/github.com/icholy/ycmd/ycmd/tests/cs/subcommands_test.py'
g187
S'Cs_Subcommands_test.FixIt_MultipleLines_test'
tp190
sI70
(S'/home/icholy/Code/src/github.com/icholy/ycmd/ycmd/tests/cs/subcommands_test.py'
g187
S'Cs_Subcommands_test.FixIt_RemoveSingleLine_test'
tp191
sI71
(S'/home/icholy/Code/src/github.com/icholy/ycmd/ycmd/tests/cs/subcommands_test.py'
g187
S'Cs_Subcommands_test.FixIt_ReplaceTextInLine_test'
tp192
sI72
(S'/home/icholy/Code/src/github.com/icholy/ycmd/ycmd/tests/cs/subcommands_test.py'
g187
S'Cs_Subcommands_test.FixIt_SpanFileEdge_test'
tp193
sI73
(S'/home/icholy/Code/src/github.com/icholy/ycmd/ycmd/tests/cs/subcommands_test.py'
g187
S'Cs_Subcommands_test.GetDoc_Function_test'
tp194
sI74
(S'/home/icholy/Code/src/github.com/icholy/ycmd/ycmd/tests/cs/subcommands_test.py'
g187
S'Cs_Subcommands_test.GetDoc_Variable_test'
tp195
sI75
(S'/home/icholy/Code/src/github.com/icholy/ycmd/ycmd/tests/cs/subcommands_test.py'
g187
S'Cs_Subcommands_test.GetType_Constant_test'
tp196
sI76
(S'/home/icholy/Code/src/github.com/icholy/ycmd/ycmd/tests/cs/subcommands_test.py'
g187
S'Cs_Subcommands_test.GetType_DocsIgnored_test'
tp197
sI77
(S'/home/icholy/Code/src/github.com/icholy/ycmd/ycmd/tests/cs/subcommands_test.py'
g187
S'Cs_Subcommands_test.GetType_EmptyMessage_test'
tp198
sI78
(S'/home/icholy/Code/src/github.com/icholy/ycmd/ycmd/tests/cs/subcommands_test.py'
g187
S'Cs_Subcommands_test.GetType_VariableDeclaration_test'
tp199
sI79
(S'/home/icholy/Code/src/github.com/icholy/ycmd/ycmd/tests/cs/subcommands_test.py'
g187
S'Cs_Subcommands_test.GetType_VariableUsage_test'
tp200
sI80
(S'/home/icholy/Code/src/github.com/icholy/ycmd/ycmd/tests/cs/subcommands_test.py'
g187
S'Cs_Subcommands_test.GoToImplementationElseDeclaration_MultipleImplementations_test'
tp201
sI81
(S'/home/icholy/Code/src/github.com/icholy/ycmd/ycmd/tests/cs/subcommands_test.py'
g187
S'Cs_Subcommands_test.GoToImplementationElseDeclaration_NoImplementation_test'
tp202
sI82
(S'/home/icholy/Code/src/github.com/icholy/ycmd/ycmd/tests/cs/subcommands_test.py'
g187
S'Cs_Subcommands_test.GoToImplementationElseDeclaration_SingleImplementation_test'
tp203
sI83
(S'/home/icholy/Code/src/github.com/icholy/ycmd/ycmd/tests/cs/subcommands_test.py'
g187
S'Cs_Subcommands_test.GoToImplementation_Basic_test'
tp204
sI84
(S'/home/icholy/Code/src/github.com/icholy/ycmd/ycmd/tests/cs/subcommands_test.py'
g187
S'Cs_Subcommands_test.GoToImplementation_NoImplementation_test'
tp205
sI85
(S'/home/icholy/Code/src/github.com/icholy/ycmd/ycmd/tests/cs/subcommands_test.py'
g187
S'Cs_Subcommands_test.GoTo_Basic_test'
tp206
sI86
(S'/home/icholy/Code/src/github.com/icholy/ycmd/ycmd/tests/cs/subcommands_test.py'
g187
S'Cs_Subcommands_test.StopServer_KeepLogFiles_test'
tp207
sI87
(S'/home/icholy/Code/src/github.com/icholy/ycmd/ycmd/tests/cs/subcommands_test.py'
g187
S'Cs_Subcommands_test.StopServer_NoErrorIfNotStarted_test'
tp208
sI88
(S'/home/icholy/Code/src/github.com/icholy/ycmd/ycmd/tests/go/get_completions_test.py'
S'ycmd.tests.go.get_completions_test'
p209
S'Go_GetCompletions_test.Basic_test'
tp210
sI89
(S'/home/icholy/Code/src/github.com/icholy/ycmd/ycmd/tests/javascript/event_notification_test.py'
S'ycmd.tests.javascript.event_notification_test'
p211
S'Javascript_EventNotification_test.OnFileReadyToParse_NoProjectFile_test'
tp212
sI90
(S'/home/icholy/Code/src/github.com/icholy/ycmd/ycmd/tests/javascript/event_notification_test.py'
g211
S'Javascript_EventNotification_test.OnFileReadyToParse_ProjectFile_cwd_test'
tp213
sI91
(S'/home/icholy/Code/src/github.com/icholy/ycmd/ycmd/tests/javascript/event_notification_test.py'
g211
S'Javascript_EventNotification_test.OnFileReadyToParse_ProjectFile_parentdir_test'
tp214
sI92
(S'/home/icholy/Code/src/github.com/icholy/ycmd/ycmd/tests/javascript/event_notification_test.py'
g211
S'Javascript_EventNotification_test.OnFileReadyToParse_UseGlobalConfig_test'
tp215
sI93
(S'/home/icholy/Code/src/github.com/icholy/ycmd/ycmd/tests/javascript/get_completions_test.py'
S'ycmd.tests.javascript.get_completions_test'
p216
S'Javascript_GetCompletions_test.DirtyNamedBuffers_test'
tp217
sI94
(S'/home/icholy/Code/src/github.com/icholy/ycmd/ycmd/tests/javascript/get_completions_test.py'
g216
S'Javascript_GetCompletions_test.NoQuery_test'
tp218
sI95
(S'/home/icholy/Code/src/github.com/icholy/ycmd/ycmd/tests/javascript/get_completions_test.py'
g216
S'Javascript_GetCompletions_test.Query_test'
tp219
sI96
(S'/home/icholy/Code/src/github.com/icholy/ycmd/ycmd/tests/javascript/get_completions_test.py'
g216
S'Javascript_GetCompletions_test.Require_NoQuery_test'
tp220
sI97
(S'/home/icholy/Code/src/github.com/icholy/ycmd/ycmd/tests/javascript/get_completions_test.py'
g216
S'Javascript_GetCompletions_test.Require_Query_LCS_test'
tp221
sI98
(S'/home/icholy/Code/src/github.com/icholy/ycmd/ycmd/tests/javascript/get_completions_test.py'
g216
S'Javascript_GetCompletions_test.Require_Query_test'
tp222
sI99
(S'/home/icholy/Code/src/github.com/icholy/ycmd/ycmd/tests/javascript/get_completions_test.py'
g216
S'Javascript_GetCompletions_test.ReturnsDocsInCompletions_test'
tp223
sI100
(S'/home/icholy/Code/src/github.com/icholy/ycmd/ycmd/tests/javascript/subcommands_test.py'
S'ycmd.tests.javascript.subcommands_test'
p224
S'Javascript_Subcommands_test.DefinedSubcommands_test'
tp225
sI101
(S'/home/icholy/Code/src/github.com/icholy/ycmd/ycmd/tests/javascript/subcommands_test.py'
g224
S'Javascript_Subcommands_test.GetDocWithNoItendifier_test'
tp226
sI102
(S'/home/icholy/Code/src/github.com/icholy/ycmd/ycmd/tests/javascript/subcommands_test.py'
g224
S'Javascript_Subcommands_test.GetDoc_test'
tp227
sI103
(S'/home/icholy/Code/src/github.com/icholy/ycmd/ycmd/tests/javascript/subcommands_test.py'
g224
S'Javascript_Subcommands_test.GetType_test'
tp228
sI104
(S'/home/icholy/Code/src/github.com/icholy/ycmd/ycmd/tests/javascript/subcommands_test.py'
g224
S'Javascript_Subcommands_test.GoToDefinition_test'
tp229
sI105
(S'/home/icholy/Code/src/github.com/icholy/ycmd/ycmd/tests/javascript/subcommands_test.py'
g224
S'Javascript_Subcommands_test.GoToReferences_test'
tp230
sI106
(S'/home/icholy/Code/src/github.com/icholy/ycmd/ycmd/tests/javascript/subcommands_test.py'
g224
S'Javascript_Subcommands_test.GoTo_test'
tp231
sI107
(S'/home/icholy/Code/src/github.com/icholy/ycmd/ycmd/tests/javascript/subcommands_test.py'
g224
S'Javascript_Subcommands_test.RefactorRename_Missing_New_Name_test'
tp232
sI108
(S'/home/icholy/Code/src/github.com/icholy/ycmd/ycmd/tests/javascript/subcommands_test.py'
g224
S'Javascript_Subcommands_test.RefactorRename_MultipleFiles_OnFileReadyToParse_test'
tp233
sI109
(S'/home/icholy/Code/src/github.com/icholy/ycmd/ycmd/tests/javascript/subcommands_test.py'
g224
S'Javascript_Subcommands_test.RefactorRename_MultipleFiles_test'
tp234
sI110
(S'/home/icholy/Code/src/github.com/icholy/ycmd/ycmd/tests/javascript/subcommands_test.py'
g224
S'Javascript_Subcommands_test.RefactorRename_Simple_test'
tp235
sI111
(S'/home/icholy/Code/src/github.com/icholy/ycmd/ycmd/tests/python/get_completions_test.py'
S'ycmd.tests.python.get_completions_test'
p236
S'Python_GetCompletions_test.Basic_test'
tp237
sI112
(S'/home/icholy/Code/src/github.com/icholy/ycmd/ycmd/tests/python/get_completions_test.py'
g236
S'Python_GetCompletions_test.NoSuggestions_Fallback_test'
tp238
sI113
(S'/home/icholy/Code/src/github.com/icholy/ycmd/ycmd/tests/python/get_completions_test.py'
g236
S'Python_GetCompletions_test.UnicodeDescription_test'
tp239
sI114
(S'/home/icholy/Code/src/github.com/icholy/ycmd/ycmd/tests/python/subcommands_test.py'
S'ycmd.tests.python.subcommands_test'
p240
S'Python_Subcommands_test.GetDoc_Class_test'
tp241
sI115
(S'/home/icholy/Code/src/github.com/icholy/ycmd/ycmd/tests/python/subcommands_test.py'
g240
S'Python_Subcommands_test.GetDoc_Method_test'
tp242
sI116
(S'/home/icholy/Code/src/github.com/icholy/ycmd/ycmd/tests/python/subcommands_test.py'
g240
S'Python_Subcommands_test.GoToDefinition_NotFound_test'
tp243
sI117
(S'/home/icholy/Code/src/github.com/icholy/ycmd/ycmd/tests/python/subcommands_test.py'
g240
S'Python_Subcommands_test.GoToReferences_test'
tp244
sI118
(S'/home/icholy/Code/src/github.com/icholy/ycmd/ycmd/tests/python/subcommands_test.py'
g240
S'Python_Subcommands_test.GoTo_Variation_ZeroBasedLineAndColumn_test'
tp245
sI119
(S'/home/icholy/Code/src/github.com/icholy/ycmd/ycmd/tests/python/subcommands_test.py'
g240
S'Python_Subcommands_test.GoTo_test'
tp246
ss.